; ModuleID = 'source-C-CXX/54/1128.cpp'
source_filename = "source-C-CXX/54/1128.cpp"
target datalayout = "e-m:e-p270:32:32-p271:32:32-p272:64:64-i64:64-f80:128-n8:16:32:64-S128"
target triple = "x86_64-pc-linux-gnu"

%"class.std::ios_base::Init" = type { i8 }
%"class.std::basic_istream" = type { i32 (...)**, i64, %"class.std::basic_ios" }
%"class.std::basic_ios" = type { %"class.std::ios_base", %"class.std::basic_ostream"*, i8, i8, %"class.std::basic_streambuf"*, %"class.std::ctype"*, %"class.std::num_put"*, %"class.std::num_get"* }
%"class.std::ios_base" = type { i32 (...)**, i64, i64, i32, i32, i32, %"struct.std::ios_base::_Callback_list"*, %"struct.std::ios_base::_Words", [8 x %"struct.std::ios_base::_Words"], i32, %"struct.std::ios_base::_Words"*, %"class.std::locale" }
%"struct.std::ios_base::_Callback_list" = type { %"struct.std::ios_base::_Callback_list"*, void (i32, %"class.std::ios_base"*, i32)*, i32, i32 }
%"struct.std::ios_base::_Words" = type { i8*, i64 }
%"class.std::locale" = type { %"class.std::locale::_Impl"* }
%"class.std::locale::_Impl" = type { i32, %"class.std::locale::facet"**, i64, %"class.std::locale::facet"**, i8** }
%"class.std::locale::facet" = type <{ i32 (...)**, i32, [4 x i8] }>
%"class.std::basic_ostream" = type { i32 (...)**, %"class.std::basic_ios" }
%"class.std::basic_streambuf" = type { i32 (...)**, i8*, i8*, i8*, i8*, i8*, i8*, %"class.std::locale" }
%"class.std::ctype" = type <{ %"class.std::locale::facet.base", [4 x i8], %struct.__locale_struct*, i8, [7 x i8], i32*, i32*, i16*, i8, [256 x i8], [256 x i8], i8, [6 x i8] }>
%"class.std::locale::facet.base" = type <{ i32 (...)**, i32 }>
%struct.__locale_struct = type { [13 x %struct.__locale_data*], i16*, i32*, i32*, [13 x i8*] }
%struct.__locale_data = type opaque
%"class.std::num_put" = type { %"class.std::locale::facet.base", [4 x i8] }
%"class.std::num_get" = type { %"class.std::locale::facet.base", [4 x i8] }

@_ZStL8__ioinit = internal global %"class.std::ios_base::Init" zeroinitializer, align 1
@__dso_handle = external hidden global i8
@_ZSt3cin = external global %"class.std::basic_istream", align 8
@_ZSt4cout = external global %"class.std::basic_ostream", align 8
@llvm.global_ctors = appending global [1 x { i32, void ()*, i8* }] [{ i32, void ()*, i8* } { i32 65535, void ()* @_GLOBAL__sub_I_1128.cpp, i8* null }]

declare void @_ZNSt8ios_base4InitC1Ev(%"class.std::ios_base::Init"* nonnull align 1 dereferenceable(1)) unnamed_addr #0

; Function Attrs: nounwind
declare void @_ZNSt8ios_base4InitD1Ev(%"class.std::ios_base::Init"* nonnull align 1 dereferenceable(1)) unnamed_addr #1

; Function Attrs: nofree nounwind
declare i32 @__cxa_atexit(void (i8*)*, i8*, i8*) local_unnamed_addr #2

; Function Attrs: mustprogress norecurse sspstrong uwtable
define dso_local i32 @main() local_unnamed_addr #3 {
  %1 = alloca i8, align 1
  %2 = alloca [100 x i8], align 16
  %3 = alloca [100 x i8], align 16
  %4 = alloca i32, align 4
  %5 = alloca i32, align 4
  %6 = getelementptr inbounds [100 x i8], [100 x i8]* %2, i64 0, i64 0
  call void @llvm.lifetime.start.p0i8(i64 100, i8* nonnull %6) #7
  %7 = getelementptr inbounds [100 x i8], [100 x i8]* %3, i64 0, i64 0
  call void @llvm.lifetime.start.p0i8(i64 100, i8* nonnull %7) #7
  %8 = bitcast i32* %4 to i8*
  call void @llvm.lifetime.start.p0i8(i64 4, i8* nonnull %8) #7
  %9 = bitcast i32* %5 to i8*
  call void @llvm.lifetime.start.p0i8(i64 4, i8* nonnull %9) #7
  %10 = call nonnull align 8 dereferenceable(16) %"class.std::basic_istream"* @_ZNSirsERi(%"class.std::basic_istream"* nonnull align 8 dereferenceable(16) @_ZSt3cin, i32* nonnull align 4 dereferenceable(4) %4)
  call void @_ZSt17__istream_extractRSiPcl(%"class.std::basic_istream"* nonnull align 8 dereferenceable(16) %10, i8* nonnull %6, i64 100)
  %11 = call nonnull align 8 dereferenceable(16) %"class.std::basic_istream"* @_ZNSirsERi(%"class.std::basic_istream"* nonnull align 8 dereferenceable(16) %10, i32* nonnull align 4 dereferenceable(4) %5)
  %12 = load i32, i32* %4, align 4
  %13 = load i8, i8* %6, align 16, !tbaa !5
  %14 = icmp eq i8 %13, 0
  br i1 %14, label %51, label %18

15:                                               ; preds = %18
  %16 = load i32, i32* %5, align 4
  %17 = icmp eq i32 %31, 0
  br i1 %17, label %51, label %36

18:                                               ; preds = %0, %18
  %19 = phi i64 [ %32, %18 ], [ 0, %0 ]
  %20 = phi i8 [ %34, %18 ], [ %13, %0 ]
  %21 = phi i32 [ %31, %18 ], [ 0, %0 ]
  %22 = sext i8 %20 to i32
  %23 = add i8 %20, -48
  %24 = icmp ult i8 %23, 10
  %25 = add i8 %20, -65
  %26 = icmp ult i8 %25, 26
  %27 = select i1 %26, i32 -55, i32 -87
  %28 = select i1 %24, i32 -48, i32 %27
  %29 = add nsw i32 %28, %22
  %30 = mul nsw i32 %12, %21
  %31 = add nsw i32 %30, %29
  %32 = add nuw i64 %19, 1
  %33 = getelementptr inbounds [100 x i8], [100 x i8]* %2, i64 0, i64 %32
  %34 = load i8, i8* %33, align 1, !tbaa !5
  %35 = icmp eq i8 %34, 0
  br i1 %35, label %15, label %18, !llvm.loop !8

36:                                               ; preds = %15, %36
  %37 = phi i64 [ %46, %36 ], [ 0, %15 ]
  %38 = phi i32 [ %45, %36 ], [ %31, %15 ]
  %39 = srem i32 %38, %16
  %40 = icmp slt i32 %39, 10
  %41 = trunc i32 %39 to i8
  %42 = select i1 %40, i8 48, i8 55
  %43 = add i8 %42, %41
  %44 = getelementptr inbounds [100 x i8], [100 x i8]* %3, i64 0, i64 %37
  store i8 %43, i8* %44, align 1
  %45 = sdiv i32 %38, %16
  %46 = add nuw i64 %37, 1
  %47 = icmp eq i32 %45, 0
  br i1 %47, label %48, label %36, !llvm.loop !10

48:                                               ; preds = %36
  %49 = trunc i64 %46 to i32
  %50 = icmp eq i32 %49, 0
  br i1 %50, label %51, label %52

51:                                               ; preds = %48, %15, %0
  store i8 48, i8* %7, align 16, !tbaa !5
  br label %54

52:                                               ; preds = %48
  %53 = icmp sgt i32 %49, 0
  br i1 %53, label %54, label %57

54:                                               ; preds = %51, %52
  %55 = phi i32 [ 1, %51 ], [ %49, %52 ]
  %56 = zext i32 %55 to i64
  br label %85

57:                                               ; preds = %85, %52
  %58 = load i8*, i8** bitcast (%"class.std::basic_ostream"* @_ZSt4cout to i8**), align 8, !tbaa !11
  %59 = getelementptr i8, i8* %58, i64 -24
  %60 = bitcast i8* %59 to i64*
  %61 = load i64, i64* %60, align 8
  %62 = add nsw i64 %61, 240
  %63 = getelementptr inbounds i8, i8* bitcast (%"class.std::basic_ostream"* @_ZSt4cout to i8*), i64 %62
  %64 = bitcast i8* %63 to %"class.std::ctype"**
  %65 = load %"class.std::ctype"*, %"class.std::ctype"** %64, align 8, !tbaa !13
  %66 = icmp eq %"class.std::ctype"* %65, null
  br i1 %66, label %67, label %68

67:                                               ; preds = %57
  call void @_ZSt16__throw_bad_castv() #8
  unreachable

68:                                               ; preds = %57
  %69 = getelementptr inbounds %"class.std::ctype", %"class.std::ctype"* %65, i64 0, i32 8
  %70 = load i8, i8* %69, align 8, !tbaa !17
  %71 = icmp eq i8 %70, 0
  br i1 %71, label %75, label %72

72:                                               ; preds = %68
  %73 = getelementptr inbounds %"class.std::ctype", %"class.std::ctype"* %65, i64 0, i32 9, i64 10
  %74 = load i8, i8* %73, align 1, !tbaa !5
  br label %81

75:                                               ; preds = %68
  call void @_ZNKSt5ctypeIcE13_M_widen_initEv(%"class.std::ctype"* nonnull align 8 dereferenceable(570) %65)
  %76 = bitcast %"class.std::ctype"* %65 to i8 (%"class.std::ctype"*, i8)***
  %77 = load i8 (%"class.std::ctype"*, i8)**, i8 (%"class.std::ctype"*, i8)*** %76, align 8, !tbaa !11
  %78 = getelementptr inbounds i8 (%"class.std::ctype"*, i8)*, i8 (%"class.std::ctype"*, i8)** %77, i64 6
  %79 = load i8 (%"class.std::ctype"*, i8)*, i8 (%"class.std::ctype"*, i8)** %78, align 8
  %80 = call signext i8 %79(%"class.std::ctype"* nonnull align 8 dereferenceable(570) %65, i8 signext 10)
  br label %81

81:                                               ; preds = %72, %75
  %82 = phi i8 [ %74, %72 ], [ %80, %75 ]
  %83 = call nonnull align 8 dereferenceable(8) %"class.std::basic_ostream"* @_ZNSo3putEc(%"class.std::basic_ostream"* nonnull align 8 dereferenceable(8) @_ZSt4cout, i8 signext %82)
  %84 = call nonnull align 8 dereferenceable(8) %"class.std::basic_ostream"* @_ZNSo5flushEv(%"class.std::basic_ostream"* nonnull align 8 dereferenceable(8) %83)
  call void @llvm.lifetime.end.p0i8(i64 4, i8* nonnull %9) #7
  call void @llvm.lifetime.end.p0i8(i64 4, i8* nonnull %8) #7
  call void @llvm.lifetime.end.p0i8(i64 100, i8* nonnull %7) #7
  call void @llvm.lifetime.end.p0i8(i64 100, i8* nonnull %6) #7
  ret i32 0

85:                                               ; preds = %54, %85
  %86 = phi i64 [ %56, %54 ], [ %94, %85 ]
  %87 = phi i32 [ %55, %54 ], [ %88, %85 ]
  %88 = add nsw i32 %87, -1
  %89 = zext i32 %88 to i64
  %90 = getelementptr inbounds [100 x i8], [100 x i8]* %3, i64 0, i64 %89
  %91 = load i8, i8* %90, align 1, !tbaa !5
  call void @llvm.lifetime.start.p0i8(i64 1, i8* nonnull %1)
  store i8 %91, i8* %1, align 1, !tbaa !5
  %92 = call nonnull align 8 dereferenceable(8) %"class.std::basic_ostream"* @_ZSt16__ostream_insertIcSt11char_traitsIcEERSt13basic_ostreamIT_T0_ES6_PKS3_l(%"class.std::basic_ostream"* nonnull align 8 dereferenceable(8) @_ZSt4cout, i8* nonnull %1, i64 1)
  call void @llvm.lifetime.end.p0i8(i64 1, i8* nonnull %1)
  %93 = icmp sgt i64 %86, 1
  %94 = add nsw i64 %86, -1
  br i1 %93, label %85, label %57, !llvm.loop !19
}

; Function Attrs: argmemonly mustprogress nofree nosync nounwind willreturn
declare void @llvm.lifetime.start.p0i8(i64 immarg, i8* nocapture) #4

declare nonnull align 8 dereferenceable(16) %"class.std::basic_istream"* @_ZNSirsERi(%"class.std::basic_istream"* nonnull align 8 dereferenceable(16), i32* nonnull align 4 dereferenceable(4)) local_unnamed_addr #0

; Function Attrs: argmemonly mustprogress nofree nosync nounwind willreturn
declare void @llvm.lifetime.end.p0i8(i64 immarg, i8* nocapture) #4

declare void @_ZSt17__istream_extractRSiPcl(%"class.std::basic_istream"* nonnull align 8 dereferenceable(16), i8*, i64) local_unnamed_addr #0

declare nonnull align 8 dereferenceable(8) %"class.std::basic_ostream"* @_ZSt16__ostream_insertIcSt11char_traitsIcEERSt13basic_ostreamIT_T0_ES6_PKS3_l(%"class.std::basic_ostream"* nonnull align 8 dereferenceable(8), i8*, i64) local_unnamed_addr #0

declare nonnull align 8 dereferenceable(8) %"class.std::basic_ostream"* @_ZNSo3putEc(%"class.std::basic_ostream"* nonnull align 8 dereferenceable(8), i8 signext) local_unnamed_addr #0

declare nonnull align 8 dereferenceable(8) %"class.std::basic_ostream"* @_ZNSo5flushEv(%"class.std::basic_ostream"* nonnull align 8 dereferenceable(8)) local_unnamed_addr #0

; Function Attrs: noreturn
declare void @_ZSt16__throw_bad_castv() local_unnamed_addr #5

declare void @_ZNKSt5ctypeIcE13_M_widen_initEv(%"class.std::ctype"* nonnull align 8 dereferenceable(570)) local_unnamed_addr #0

; Function Attrs: sspstrong uwtable
define internal void @_GLOBAL__sub_I_1128.cpp() #6 section ".text.startup" {
  tail call void @_ZNSt8ios_base4InitC1Ev(%"class.std::ios_base::Init"* nonnull align 1 dereferenceable(1) @_ZStL8__ioinit)
  %1 = tail call i32 @__cxa_atexit(void (i8*)* bitcast (void (%"class.std::ios_base::Init"*)* @_ZNSt8ios_base4InitD1Ev to void (i8*)*), i8* getelementptr inbounds (%"class.std::ios_base::Init", %"class.std::ios_base::Init"* @_ZStL8__ioinit, i64 0, i32 0), i8* nonnull @__dso_handle) #7
  ret void
}


!llvm.module.flags = !{!0, !1, !2, !3}
!llvm.ident = !{!4}

!0 = !{i32 1, !"wchar_size", i32 4}
!1 = !{i32 7, !"PIC Level", i32 2}
!2 = !{i32 7, !"PIE Level", i32 2}
!3 = !{i32 7, !"uwtable", i32 1}
!4 = !{!"clang version 13.0.0"}
!5 = !{!6, !6, i64 0}
!6 = !{!"omnipotent char", !7, i64 0}
!7 = !{!"Simple C++ TBAA"}
!8 = distinct !{!8, !9}
!9 = !{!"llvm.loop.mustprogress"}
!10 = distinct !{!10, !9}
!11 = !{!12, !12, i64 0}
!12 = !{!"vtable pointer", !7, i64 0}
!13 = !{!14, !15, i64 240}
!14 = !{!"_ZTSSt9basic_iosIcSt11char_traitsIcEE", !15, i64 216, !6, i64 224, !16, i64 225, !15, i64 232, !15, i64 240, !15, i64 248, !15, i64 256}
!15 = !{!"any pointer", !6, i64 0}
!16 = !{!"bool", !6, i64 0}
!17 = !{!18, !6, i64 56}
!18 = !{!"_ZTSSt5ctypeIcE", !15, i64 16, !16, i64 24, !15, i64 32, !15, i64 40, !15, i64 48, !6, i64 56, !6, i64 57, !6, i64 313, !6, i64 569}
!19 = distinct !{!19, !9}
